; Function Attrs: mustprogress nounwind uwtable
define void @_ZN5boost10filesystem6detail11dir_itr_impD2Ev(ptr noundef nonnull align 8 dereferenceable(64) %0) unnamed_addr #14 align 2 personality ptr @__gxx_personality_v0 {
  %2 = getelementptr inbounds nuw i8, ptr %0, i64 56
  %3 = load ptr, ptr %2, align 8, !tbaa !37, !noalias !43
  %.not.i = icmp eq ptr %3, null
  br i1 %.not.i, label %_ZN5boost10filesystem6detail12_GLOBAL__N_113dir_itr_closeERNS1_11dir_itr_impE.exit, label %4

4:                                                ; preds = %1
  store ptr null, ptr %2, align 8, !tbaa !37, !noalias !43
  %5 = tail call i32 @closedir(ptr noundef nonnull %3), !noalias !43
  %.not6.not.i = icmp eq i32 %5, 0
  br i1 %.not6.not.i, label %_ZN5boost10filesystem6detail12_GLOBAL__N_113dir_itr_closeERNS1_11dir_itr_impE.exit, label %6, !prof !46

6:                                                ; preds = %4
  %7 = load i64, ptr getelementptr inbounds nuw (i8, ptr @_ZN5boost6system6detail17system_cat_holderIvE8instanceE, i64 8), align 8, !tbaa !27, !noalias !43
  %8 = and i64 %7, -2
  %switch.i.i.i = icmp eq i64 %8, -5572340897628102704
  br i1 %switch.i.i.i, label %_ZN5boost10filesystem6detail12_GLOBAL__N_113dir_itr_closeERNS1_11dir_itr_impE.exit, label %9

9:                                                ; preds = %6
  %10 = tail call ptr @__errno_location() #33
  %11 = load i32, ptr %10, align 4, !tbaa !23, !noalias !43
  %12 = load ptr, ptr @_ZN5boost6system6detail17system_cat_holderIvE8instanceE, align 8, !tbaa !32, !noalias !43
  %13 = getelementptr inbounds i8, ptr %12, i64 48
  %14 = load ptr, ptr %13, align 8, !noalias !43
  %15 = tail call noundef zeroext i1 %14(ptr noundef nonnull align 8 dereferenceable(52) @_ZN5boost6system6detail17system_cat_holderIvE8instanceE, i32 noundef %11) #30, !noalias !43
  br label %_ZN5boost10filesystem6detail12_GLOBAL__N_113dir_itr_closeERNS1_11dir_itr_impE.exit

_ZN5boost10filesystem6detail12_GLOBAL__N_113dir_itr_closeERNS1_11dir_itr_impE.exit: ; preds = %6, %1, %4, %9
  %16 = getelementptr inbounds nuw i8, ptr %0, i64 8
  %17 = load ptr, ptr %16, align 8, !tbaa !13
  %18 = getelementptr inbounds nuw i8, ptr %0, i64 24
  %19 = icmp eq ptr %17, %18
  br i1 %19, label %_ZNKSt7__cxx1112basic_stringIcSt11char_traitsIcESaIcEE11_M_is_localEv.exit.thread.i.i.i.i, label %_ZNKSt7__cxx1112basic_stringIcSt11char_traitsIcESaIcEE11_M_is_localEv.exit.i.i.i.i

_ZNKSt7__cxx1112basic_stringIcSt11char_traitsIcESaIcEE11_M_is_localEv.exit.thread.i.i.i.i: ; preds = %_ZN5boost10filesystem6detail12_GLOBAL__N_113dir_itr_closeERNS1_11dir_itr_impE.exit
  %20 = getelementptr inbounds nuw i8, ptr %0, i64 16
  %21 = load i64, ptr %20, align 8, !tbaa !16
  %22 = icmp ult i64 %21, 16
  tail call void @llvm.assume(i1 %22)
  br label %_ZN5boost10filesystem15directory_entryD2Ev.exit

_ZNKSt7__cxx1112basic_stringIcSt11char_traitsIcESaIcEE11_M_is_localEv.exit.i.i.i.i: ; preds = %_ZN5boost10filesystem6detail12_GLOBAL__N_113dir_itr_closeERNS1_11dir_itr_impE.exit
  %23 = load i64, ptr %18, align 8, !tbaa !15
  %24 = add i64 %23, 1
  tail call void @_ZdlPvm(ptr noundef %17, i64 noundef %24) #34
  br label %_ZN5boost10filesystem15directory_entryD2Ev.exit

_ZN5boost10filesystem15directory_entryD2Ev.exit:  ; preds = %_ZNKSt7__cxx1112basic_stringIcSt11char_traitsIcESaIcEE11_M_is_localEv.exit.thread.i.i.i.i, %_ZNKSt7__cxx1112basic_stringIcSt11char_traitsIcESaIcEE11_M_is_localEv.exit.i.i.i.i
  ret void
}